target datalayout = "e-m:e-p270:32:32-p271:32:32-p272:64:64-i64:64-i128:128-f80:128-n8:16:32:64-S128"
target triple = "x86_64-pc-linux-gnu"

%struct.lv_color_t = type { i8, i8, i8 }

@disp_size = internal global i32 0, align 4
@calendar = internal global ptr null, align 8

; Function Attrs: nounwind uwtable
define internal void @birthday_event_cb(ptr noundef %0) #0 {
  %2 = alloca ptr, align 8
  %3 = alloca i32, align 4
  %4 = alloca ptr, align 8
  %5 = alloca %struct.lv_color_t, align 1
  %6 = alloca i24, align 4
  store ptr %0, ptr %2, align 8, !tbaa !7
  call void @llvm.lifetime.start.p0(i64 4, ptr %3) #5
  %7 = load ptr, ptr %2, align 8, !tbaa !7
  %8 = call i32 @lv_event_get_code(ptr noundef %7)
  store i32 %8, ptr %3, align 4, !tbaa !3
  call void @llvm.lifetime.start.p0(i64 8, ptr %4) #5
  %9 = load ptr, ptr %2, align 8, !tbaa !7
  %10 = call ptr @lv_event_get_target(ptr noundef %9)
  store ptr %10, ptr %4, align 8, !tbaa !7
  %11 = load i32, ptr %3, align 4, !tbaa !3
  %12 = icmp eq i32 %11, 19
  br i1 %12, label %13, label %50

13:                                               ; preds = %1
  %14 = call ptr @lv_indev_active()
  %15 = call i32 @lv_indev_get_type(ptr noundef %14)
  %16 = icmp eq i32 %15, 1
  br i1 %16, label %17, label %49

17:                                               ; preds = %13
  %18 = load ptr, ptr @calendar, align 8, !tbaa !7
  %19 = icmp eq ptr %18, null
  br i1 %19, label %20, label %48

20:                                               ; preds = %17
  %21 = call ptr @lv_layer_top()
  call void @lv_obj_add_flag(ptr noundef %21, i32 noundef 2)
  %22 = call ptr @lv_layer_top()
  %23 = call ptr @lv_calendar_create(ptr noundef %22)
  store ptr %23, ptr @calendar, align 8, !tbaa !7
  %24 = call ptr @lv_layer_top()
  call void @lv_obj_set_style_bg_opa(ptr noundef %24, i8 noundef zeroext 127, i32 noundef 0)
  %25 = call ptr @lv_layer_top()
  %26 = call i24 @lv_palette_main(i32 noundef 18)
  store i24 %26, ptr %5, align 1
  call void @llvm.memcpy.p0.p0.i64(ptr align 4 %6, ptr align 1 %5, i64 3, i1 false)
  %27 = load i24, ptr %6, align 4
  call void @lv_obj_set_style_bg_color(ptr noundef %25, i24 %27, i32 noundef 0)
  %28 = load i32, ptr @disp_size, align 4, !tbaa !3
  %29 = icmp eq i32 %28, 0
  br i1 %29, label %30, label %32

30:                                               ; preds = %20
  %31 = load ptr, ptr @calendar, align 8, !tbaa !7
  call void @lv_obj_set_size(ptr noundef %31, i32 noundef 180, i32 noundef 200)
  br label %40

32:                                               ; preds = %20
  %33 = load i32, ptr @disp_size, align 4, !tbaa !3
  %34 = icmp eq i32 %33, 1
  br i1 %34, label %35, label %37

35:                                               ; preds = %32
  %36 = load ptr, ptr @calendar, align 8, !tbaa !7
  call void @lv_obj_set_size(ptr noundef %36, i32 noundef 200, i32 noundef 220)
  br label %39

37:                                               ; preds = %32
  %38 = load ptr, ptr @calendar, align 8, !tbaa !7
  call void @lv_obj_set_size(ptr noundef %38, i32 noundef 300, i32 noundef 330)
  br label %39

39:                                               ; preds = %37, %35
  br label %40

40:                                               ; preds = %39, %30
  %41 = load ptr, ptr @calendar, align 8, !tbaa !7
  call void @lv_calendar_set_showed_date(ptr noundef %41, i32 noundef 1990, i32 noundef 1)
  %42 = load ptr, ptr @calendar, align 8, !tbaa !7
  call void @lv_obj_align(ptr noundef %42, i32 noundef 9, i32 noundef 0, i32 noundef 30)
  %43 = load ptr, ptr @calendar, align 8, !tbaa !7
  %44 = load ptr, ptr %4, align 8, !tbaa !7
  %45 = call ptr @lv_obj_add_event_cb(ptr noundef %43, ptr noundef @calendar_event_cb, i32 noundef 0, ptr noundef %44)
  %46 = load ptr, ptr @calendar, align 8, !tbaa !7
  %47 = call ptr @lv_calendar_header_dropdown_create(ptr noundef %46)
  br label %48

48:                                               ; preds = %40, %17
  br label %49

49:                                               ; preds = %48, %13
  br label %50

50:                                               ; preds = %49, %1
  call void @llvm.lifetime.end.p0(i64 8, ptr %4) #5
  call void @llvm.lifetime.end.p0(i64 4, ptr %3) #5
  ret void
}