; Function Attrs: nounwind uwtable
define internal void @birthday_event_cb(ptr noundef %0) #0 {
  %2 = tail call i32 @lv_event_get_code(ptr noundef %0) #5
  %3 = tail call ptr @lv_event_get_target(ptr noundef %0) #5
  %4 = icmp eq i32 %2, 19
  br i1 %4, label %5, label %30

5:                                                ; preds = %1
  %6 = tail call ptr @lv_indev_active() #5
  %7 = tail call i32 @lv_indev_get_type(ptr noundef %6) #5
  %8 = icmp eq i32 %7, 1
  %9 = load ptr, ptr @calendar, align 8
  %10 = icmp eq ptr %9, null
  %or.cond = select i1 %8, i1 %10, i1 false
  br i1 %or.cond, label %11, label %30

11:                                               ; preds = %5
  %12 = tail call ptr @lv_layer_top() #5
  tail call void @lv_obj_add_flag(ptr noundef %12, i32 noundef 2) #5
  %13 = tail call ptr @lv_layer_top() #5
  %14 = tail call ptr @lv_calendar_create(ptr noundef %13) #5
  store ptr %14, ptr @calendar, align 8, !tbaa !7
  %15 = tail call ptr @lv_layer_top() #5
  tail call void @lv_obj_set_style_bg_opa(ptr noundef %15, i8 noundef zeroext 127, i32 noundef 0) #5
  %16 = tail call ptr @lv_layer_top() #5
  %17 = tail call i24 @lv_palette_main(i32 noundef 18) #5
  tail call void @lv_obj_set_style_bg_color(ptr noundef %16, i24 %17, i32 noundef 0) #5
  %18 = load i32, ptr @disp_size, align 4, !tbaa !3
  %19 = load ptr, ptr @calendar, align 8, !tbaa !7
  switch i32 %18, label %22 [
    i32 0, label %20
    i32 1, label %21
  ]

20:                                               ; preds = %11
  tail call void @lv_obj_set_size(ptr noundef %19, i32 noundef 180, i32 noundef 200) #5
  br label %23

21:                                               ; preds = %11
  tail call void @lv_obj_set_size(ptr noundef %19, i32 noundef 200, i32 noundef 220) #5
  br label %23

22:                                               ; preds = %11
  tail call void @lv_obj_set_size(ptr noundef %19, i32 noundef 300, i32 noundef 330) #5
  br label %23

23:                                               ; preds = %21, %22, %20
  %24 = load ptr, ptr @calendar, align 8, !tbaa !7
  tail call void @lv_calendar_set_showed_date(ptr noundef %24, i32 noundef 1990, i32 noundef 1) #5
  %25 = load ptr, ptr @calendar, align 8, !tbaa !7
  tail call void @lv_obj_align(ptr noundef %25, i32 noundef 9, i32 noundef 0, i32 noundef 30) #5
  %26 = load ptr, ptr @calendar, align 8, !tbaa !7
  %27 = tail call ptr @lv_obj_add_event_cb(ptr noundef %26, ptr noundef nonnull @calendar_event_cb, i32 noundef 0, ptr noundef %3) #5
  %28 = load ptr, ptr @calendar, align 8, !tbaa !7
  %29 = tail call ptr @lv_calendar_header_dropdown_create(ptr noundef %28) #5
  br label %30

30:                                               ; preds = %5, %23, %1
  ret void
}